target datalayout = "e-m:e-p270:32:32-p271:32:32-p272:64:64-i64:64-i128:128-f80:128-n8:16:32:64-S128"
target triple = "x86_64-pc-linux-gnu"

@_ZN10JNIHandles15_global_handlesE = hidden global ptr null, align 8
@_ZN10JNIHandles20_weak_global_handlesE = hidden global ptr null, align 8
@.str.8 = private unnamed_addr constant [37 x i8] c"JNI global refs: %lu, weak refs: %lu\00", align 1

; Function Attrs: mustprogress nounwind uwtable
define hidden noundef ptr @_ZN10JNIHandles19weak_global_handlesEv() #1 align 2 {
  %1 = load ptr, ptr @_ZN10JNIHandles20_weak_global_handlesE, align 8
  ret ptr %1
}

; Function Attrs: mustprogress nounwind uwtable
define hidden noundef ptr @_ZN10JNIHandles14global_handlesEv() #1 align 2 {
  %1 = load ptr, ptr @_ZN10JNIHandles15_global_handlesE, align 8
  ret ptr %1
}

; Function Attrs: mustprogress nounwind uwtable
define hidden void @_ZN10JNIHandles8print_onEP12outputStream(ptr noundef %0) #1 align 2 {
  %2 = alloca ptr, align 8
  store ptr %0, ptr %2, align 8
  %3 = load ptr, ptr %2, align 8
  %4 = call noundef ptr @_ZN10JNIHandles14global_handlesEv()
  %5 = call noundef i64 @_ZNK10OopStorage16allocation_countEv(ptr noundef nonnull align 8 dereferenceable(126) %4)
  %6 = call noundef ptr @_ZN10JNIHandles19weak_global_handlesEv()
  %7 = call noundef i64 @_ZNK10OopStorage16allocation_countEv(ptr noundef nonnull align 8 dereferenceable(126) %6)
  call void (ptr, ptr, ...) @_ZN12outputStream8print_crEPKcz(ptr noundef nonnull align 8 dereferenceable(56) %3, ptr noundef @.str.8, i64 noundef %5, i64 noundef %7)
  %8 = load ptr, ptr %2, align 8
  call void @_ZN12outputStream2crEv(ptr noundef nonnull align 8 dereferenceable(56) %8)
  %9 = load ptr, ptr %2, align 8
  %10 = load ptr, ptr %9, align 8
  %11 = getelementptr inbounds ptr, ptr %10, i64 0
  %12 = load ptr, ptr %11, align 8
  call void %12(ptr noundef nonnull align 8 dereferenceable(56) %9)
  ret void
}