; Function Attrs: mustprogress nounwind uwtable
define hidden void @_ZN10JNIHandles8print_onEP12outputStream(ptr noundef %0) local_unnamed_addr #1 align 2 {
  %2 = load ptr, ptr @_ZN10JNIHandles15_global_handlesE, align 8
  %3 = tail call noundef i64 @_ZNK10OopStorage16allocation_countEv(ptr noundef nonnull align 8 dereferenceable(126) %2) #11
  %4 = load ptr, ptr @_ZN10JNIHandles20_weak_global_handlesE, align 8
  %5 = tail call noundef i64 @_ZNK10OopStorage16allocation_countEv(ptr noundef nonnull align 8 dereferenceable(126) %4) #11
  tail call void (ptr, ptr, ...) @_ZN12outputStream8print_crEPKcz(ptr noundef nonnull align 8 dereferenceable(56) %0, ptr noundef nonnull @.str.8, i64 noundef %3, i64 noundef %5) #11
  tail call void @_ZN12outputStream2crEv(ptr noundef nonnull align 8 dereferenceable(56) %0) #11
  %6 = load ptr, ptr %0, align 8
  %7 = load ptr, ptr %6, align 8
  tail call void %7(ptr noundef nonnull align 8 dereferenceable(56) %0) #11
  ret void
}